target datalayout = "e-m:e-p270:32:32-p271:32:32-p272:64:64-i64:64-i128:128-f80:128-n8:16:32:64-S128"
target triple = "x86_64-pc-linux-gnu"

%struct.Fraig_NodeStruct_t_ = type { i32, i32, i32, i32, i32, i32, i32, ptr, ptr, ptr, ptr, ptr, ptr, ptr, ptr, i32, i32, ptr, ptr, ptr, ptr, ptr, ptr, ptr }
%struct.Fraig_ManStruct_t_ = type { ptr, ptr, ptr, ptr, ptr, ptr, ptr, ptr, ptr, i32, i32, i32, i32, i32, i32, i32, i32, i32, i32, i32, i32, i64, i32, i32, i32, i32, i32, ptr, ptr, ptr, ptr, ptr, i32, ptr, ptr, ptr, ptr, ptr, ptr, i32, ptr, ptr, ptr, ptr, i32, i32, i32, i32, i32, i32, i32, i32, i32, i32, i32, i32, i32, i32, i32, i32, i32, i32, i32, i64, i64, i64, i64, i64, i64, i64, i64, i64, i64, i64, i64 }
%struct.Fraig_NodeVecStruct_t_ = type { i32, i32, ptr }
%struct.timespec = type { i64, i64 }

; Function Attrs: inlinehint nounwind uwtable
define internal i64 @Abc_Clock() #4 {
  %1 = alloca i64, align 8
  %2 = alloca %struct.timespec, align 8
  %3 = alloca i32, align 4
  %4 = alloca i64, align 8
  call void @llvm.lifetime.start.p0(i64 16, ptr %2) #5
  %5 = call i32 @clock_gettime(i32 noundef 1, ptr noundef %2) #5
  %6 = icmp slt i32 %5, 0
  br i1 %6, label %7, label %8

7:                                                ; preds = %0
  store i64 -1, ptr %1, align 8
  store i32 1, ptr %3, align 4
  br label %19

8:                                                ; preds = %0
  call void @llvm.lifetime.start.p0(i64 8, ptr %4) #5
  %9 = getelementptr inbounds nuw %struct.timespec, ptr %2, i32 0, i32 0
  %10 = load i64, ptr %9, align 8, !tbaa !76
  %11 = mul nsw i64 %10, 1000000
  store i64 %11, ptr %4, align 8, !tbaa !35
  %12 = getelementptr inbounds nuw %struct.timespec, ptr %2, i32 0, i32 1
  %13 = load i64, ptr %12, align 8, !tbaa !78
  %14 = mul nsw i64 %13, 1000000
  %15 = sdiv i64 %14, 1000000000
  %16 = load i64, ptr %4, align 8, !tbaa !35
  %17 = add nsw i64 %16, %15
  store i64 %17, ptr %4, align 8, !tbaa !35
  %18 = load i64, ptr %4, align 8, !tbaa !35
  store i64 %18, ptr %1, align 8
  store i32 1, ptr %3, align 4
  call void @llvm.lifetime.end.p0(i64 8, ptr %4) #5
  br label %19

19:                                               ; preds = %8, %7
  call void @llvm.lifetime.end.p0(i64 16, ptr %2) #5
  %20 = load i64, ptr %1, align 8
  ret i64 %20
}

; Function Attrs: nounwind uwtable
define i32 @Fraig_ManCheckClauseUsingSat(ptr noundef %0, ptr noundef %1, ptr noundef %2, i32 noundef %3) #0 {
  %5 = alloca i32, align 4
  %6 = alloca ptr, align 8
  %7 = alloca ptr, align 8
  %8 = alloca ptr, align 8
  %9 = alloca i32, align 4
  %10 = alloca ptr, align 8
  %11 = alloca ptr, align 8
  %12 = alloca i32, align 4
  %13 = alloca i32, align 4
  %14 = alloca i32, align 4
  %15 = alloca i64, align 8
  %16 = alloca i32, align 4
  %17 = alloca i32, align 4
  store ptr %0, ptr %6, align 8, !tbaa !3
  store ptr %1, ptr %7, align 8, !tbaa !8
  store ptr %2, ptr %8, align 8, !tbaa !8
  store i32 %3, ptr %9, align 4, !tbaa !10
  call void @llvm.lifetime.start.p0(i64 8, ptr %10) #5
  call void @llvm.lifetime.start.p0(i64 8, ptr %11) #5
  call void @llvm.lifetime.start.p0(i64 4, ptr %12) #5
  call void @llvm.lifetime.start.p0(i64 4, ptr %13) #5
  call void @llvm.lifetime.start.p0(i64 4, ptr %14) #5
  call void @llvm.lifetime.start.p0(i64 8, ptr %15) #5
  call void @llvm.lifetime.start.p0(i64 4, ptr %16) #5
  store i32 0, ptr %16, align 4, !tbaa !10
  %18 = load ptr, ptr %7, align 8, !tbaa !8
  %19 = ptrtoint ptr %18 to i64
  %20 = and i64 %19, -2
  %21 = inttoptr i64 %20 to ptr
  store ptr %21, ptr %10, align 8, !tbaa !8
  %22 = load ptr, ptr %8, align 8, !tbaa !8
  %23 = ptrtoint ptr %22 to i64
  %24 = and i64 %23, -2
  %25 = inttoptr i64 %24 to ptr
  store ptr %25, ptr %11, align 8, !tbaa !8
  %26 = load ptr, ptr %6, align 8, !tbaa !3
  %27 = getelementptr inbounds nuw %struct.Fraig_ManStruct_t_, ptr %26, i32 0, i32 37
  %28 = load ptr, ptr %27, align 8, !tbaa !25
  %29 = icmp eq ptr %28, null
  br i1 %29, label %30, label %32

30:                                               ; preds = %4
  %31 = load ptr, ptr %6, align 8, !tbaa !3
  call void @Fraig_ManCreateSolver(ptr noundef %31)
  br label %32

32:                                               ; preds = %30, %4
  %33 = load ptr, ptr %6, align 8, !tbaa !3
  %34 = getelementptr inbounds nuw %struct.Fraig_ManStruct_t_, ptr %33, i32 0, i32 37
  %35 = load ptr, ptr %34, align 8, !tbaa !25
  %36 = call i32 @Msat_SolverReadVarNum(ptr noundef %35)
  store i32 %36, ptr %14, align 4, !tbaa !10
  br label %37

37:                                               ; preds = %61, %32
  %38 = load i32, ptr %14, align 4, !tbaa !10
  %39 = load ptr, ptr %6, align 8, !tbaa !3
  %40 = getelementptr inbounds nuw %struct.Fraig_ManStruct_t_, ptr %39, i32 0, i32 1
  %41 = load ptr, ptr %40, align 8, !tbaa !26
  %42 = getelementptr inbounds nuw %struct.Fraig_NodeVecStruct_t_, ptr %41, i32 0, i32 1
  %43 = load i32, ptr %42, align 4, !tbaa !27
  %44 = icmp slt i32 %38, %43
  br i1 %44, label %45, label %64

45:                                               ; preds = %37
  %46 = load ptr, ptr %6, align 8, !tbaa !3
  %47 = getelementptr inbounds nuw %struct.Fraig_ManStruct_t_, ptr %46, i32 0, i32 37
  %48 = load ptr, ptr %47, align 8, !tbaa !25
  %49 = load ptr, ptr %6, align 8, !tbaa !3
  %50 = getelementptr inbounds nuw %struct.Fraig_ManStruct_t_, ptr %49, i32 0, i32 1
  %51 = load ptr, ptr %50, align 8, !tbaa !26
  %52 = getelementptr inbounds nuw %struct.Fraig_NodeVecStruct_t_, ptr %51, i32 0, i32 2
  %53 = load ptr, ptr %52, align 8, !tbaa !30
  %54 = load i32, ptr %14, align 4, !tbaa !10
  %55 = sext i32 %54 to i64
  %56 = getelementptr inbounds ptr, ptr %53, i64 %55
  %57 = load ptr, ptr %56, align 8, !tbaa !8
  %58 = getelementptr inbounds nuw %struct.Fraig_NodeStruct_t_, ptr %57, i32 0, i32 2
  %59 = load i32, ptr %58, align 8, !tbaa !31
  %60 = call i32 @Msat_SolverAddVar(ptr noundef %48, i32 noundef %59)
  br label %61

61:                                               ; preds = %45
  %62 = load i32, ptr %14, align 4, !tbaa !10
  %63 = add nsw i32 %62, 1
  store i32 %63, ptr %14, align 4, !tbaa !10
  br label %37, !llvm.loop !73

64:                                               ; preds = %37
  %65 = call i64 @Abc_Clock()
  store i64 %65, ptr %15, align 8, !tbaa !35
  %66 = load ptr, ptr %6, align 8, !tbaa !3
  %67 = load ptr, ptr %10, align 8, !tbaa !8
  %68 = load ptr, ptr %11, align 8, !tbaa !8
  call void @Fraig_OrderVariables(ptr noundef %66, ptr noundef %67, ptr noundef %68)
  %69 = call i64 @Abc_Clock()
  %70 = load i64, ptr %15, align 8, !tbaa !35
  %71 = sub nsw i64 %69, %70
  %72 = load ptr, ptr %6, align 8, !tbaa !3
  %73 = getelementptr inbounds nuw %struct.Fraig_ManStruct_t_, ptr %72, i32 0, i32 65
  %74 = load i64, ptr %73, align 8, !tbaa !36
  %75 = add nsw i64 %74, %71
  store i64 %75, ptr %73, align 8, !tbaa !36
  %76 = load ptr, ptr %6, align 8, !tbaa !3
  %77 = getelementptr inbounds nuw %struct.Fraig_ManStruct_t_, ptr %76, i32 0, i32 37
  %78 = load ptr, ptr %77, align 8, !tbaa !25
  %79 = load ptr, ptr %6, align 8, !tbaa !3
  %80 = getelementptr inbounds nuw %struct.Fraig_ManStruct_t_, ptr %79, i32 0, i32 41
  %81 = load ptr, ptr %80, align 8, !tbaa !37
  call void @Msat_SolverPrepare(ptr noundef %78, ptr noundef %81)
  %82 = load ptr, ptr %6, align 8, !tbaa !3
  %83 = getelementptr inbounds nuw %struct.Fraig_ManStruct_t_, ptr %82, i32 0, i32 38
  %84 = load ptr, ptr %83, align 8, !tbaa !38
  call void @Msat_IntVecClear(ptr noundef %84)
  %85 = load ptr, ptr %6, align 8, !tbaa !3
  %86 = getelementptr inbounds nuw %struct.Fraig_ManStruct_t_, ptr %85, i32 0, i32 38
  %87 = load ptr, ptr %86, align 8, !tbaa !38
  %88 = load ptr, ptr %10, align 8, !tbaa !8
  %89 = getelementptr inbounds nuw %struct.Fraig_NodeStruct_t_, ptr %88, i32 0, i32 0
  %90 = load i32, ptr %89, align 8, !tbaa !39
  %91 = mul nsw i32 2, %90
  %92 = load ptr, ptr %7, align 8, !tbaa !8
  %93 = ptrtoint ptr %92 to i64
  %94 = and i64 %93, 1
  %95 = trunc i64 %94 to i32
  %96 = icmp ne i32 %95, 0
  %97 = xor i1 %96, true
  %98 = zext i1 %97 to i32
  %99 = add nsw i32 %91, %98
  call void @Msat_IntVecPush(ptr noundef %87, i32 noundef %99)
  %100 = load ptr, ptr %6, align 8, !tbaa !3
  %101 = getelementptr inbounds nuw %struct.Fraig_ManStruct_t_, ptr %100, i32 0, i32 38
  %102 = load ptr, ptr %101, align 8, !tbaa !38
  %103 = load ptr, ptr %11, align 8, !tbaa !8
  %104 = getelementptr inbounds nuw %struct.Fraig_NodeStruct_t_, ptr %103, i32 0, i32 0
  %105 = load i32, ptr %104, align 8, !tbaa !39
  %106 = mul nsw i32 2, %105
  %107 = load ptr, ptr %8, align 8, !tbaa !8
  %108 = ptrtoint ptr %107 to i64
  %109 = and i64 %108, 1
  %110 = trunc i64 %109 to i32
  %111 = icmp ne i32 %110, 0
  %112 = xor i1 %111, true
  %113 = zext i1 %112 to i32
  %114 = add nsw i32 %106, %113
  call void @Msat_IntVecPush(ptr noundef %102, i32 noundef %114)
  %115 = call i64 @Abc_Clock()
  store i64 %115, ptr %15, align 8, !tbaa !35
  %116 = load ptr, ptr %6, align 8, !tbaa !3
  %117 = getelementptr inbounds nuw %struct.Fraig_ManStruct_t_, ptr %116, i32 0, i32 37
  %118 = load ptr, ptr %117, align 8, !tbaa !25
  %119 = load ptr, ptr %6, align 8, !tbaa !3
  %120 = getelementptr inbounds nuw %struct.Fraig_ManStruct_t_, ptr %119, i32 0, i32 38
  %121 = load ptr, ptr %120, align 8, !tbaa !38
  %122 = load i32, ptr %9, align 4, !tbaa !10
  %123 = call i32 @Msat_SolverSolve(ptr noundef %118, ptr noundef %121, i32 noundef %122, i32 noundef 1000000)
  store i32 %123, ptr %13, align 4, !tbaa !10
  %124 = call i64 @Abc_Clock()
  %125 = load i64, ptr %15, align 8, !tbaa !35
  %126 = sub nsw i64 %124, %125
  %127 = load ptr, ptr %6, align 8, !tbaa !3
  %128 = getelementptr inbounds nuw %struct.Fraig_ManStruct_t_, ptr %127, i32 0, i32 68
  %129 = load i64, ptr %128, align 8, !tbaa !40
  %130 = add nsw i64 %129, %126
  store i64 %130, ptr %128, align 8, !tbaa !40
  %131 = load i32, ptr %13, align 4, !tbaa !10
  %132 = icmp eq i32 %131, -1
  br i1 %132, label %133, label %172

133:                                              ; preds = %64
  %134 = load i32, ptr %16, align 4, !tbaa !10
  %135 = icmp ne i32 %134, 0
  br i1 %135, label %136, label %137

136:                                              ; preds = %133
  br label %137

137:                                              ; preds = %136, %133
  %138 = load ptr, ptr %6, align 8, !tbaa !3
  %139 = getelementptr inbounds nuw %struct.Fraig_ManStruct_t_, ptr %138, i32 0, i32 38
  %140 = load ptr, ptr %139, align 8, !tbaa !38
  call void @Msat_IntVecClear(ptr noundef %140)
  %141 = load ptr, ptr %6, align 8, !tbaa !3
  %142 = getelementptr inbounds nuw %struct.Fraig_ManStruct_t_, ptr %141, i32 0, i32 38
  %143 = load ptr, ptr %142, align 8, !tbaa !38
  %144 = load ptr, ptr %10, align 8, !tbaa !8
  %145 = getelementptr inbounds nuw %struct.Fraig_NodeStruct_t_, ptr %144, i32 0, i32 0
  %146 = load i32, ptr %145, align 8, !tbaa !39
  %147 = mul nsw i32 2, %146
  %148 = load ptr, ptr %7, align 8, !tbaa !8
  %149 = ptrtoint ptr %148 to i64
  %150 = and i64 %149, 1
  %151 = trunc i64 %150 to i32
  %152 = add nsw i32 %147, %151
  call void @Msat_IntVecPush(ptr noundef %143, i32 noundef %152)
  %153 = load ptr, ptr %6, align 8, !tbaa !3
  %154 = getelementptr inbounds nuw %struct.Fraig_ManStruct_t_, ptr %153, i32 0, i32 38
  %155 = load ptr, ptr %154, align 8, !tbaa !38
  %156 = load ptr, ptr %11, align 8, !tbaa !8
  %157 = getelementptr inbounds nuw %struct.Fraig_NodeStruct_t_, ptr %156, i32 0, i32 0
  %158 = load i32, ptr %157, align 8, !tbaa !39
  %159 = mul nsw i32 2, %158
  %160 = load ptr, ptr %8, align 8, !tbaa !8
  %161 = ptrtoint ptr %160 to i64
  %162 = and i64 %161, 1
  %163 = trunc i64 %162 to i32
  %164 = add nsw i32 %159, %163
  call void @Msat_IntVecPush(ptr noundef %155, i32 noundef %164)
  %165 = load ptr, ptr %6, align 8, !tbaa !3
  %166 = getelementptr inbounds nuw %struct.Fraig_ManStruct_t_, ptr %165, i32 0, i32 37
  %167 = load ptr, ptr %166, align 8, !tbaa !25
  %168 = load ptr, ptr %6, align 8, !tbaa !3
  %169 = getelementptr inbounds nuw %struct.Fraig_ManStruct_t_, ptr %168, i32 0, i32 38
  %170 = load ptr, ptr %169, align 8, !tbaa !38
  %171 = call i32 @Msat_SolverAddClause(ptr noundef %167, ptr noundef %170)
  store i32 %171, ptr %12, align 4, !tbaa !10
  store i32 1, ptr %5, align 4
  store i32 1, ptr %17, align 4
  br label %196

172:                                              ; preds = %64
  %173 = load i32, ptr %13, align 4, !tbaa !10
  %174 = icmp eq i32 %173, 1
  br i1 %174, label %175, label %184

175:                                              ; preds = %172
  %176 = load i32, ptr %16, align 4, !tbaa !10
  %177 = icmp ne i32 %176, 0
  br i1 %177, label %178, label %179

178:                                              ; preds = %175
  br label %179

179:                                              ; preds = %178, %175
  %180 = load ptr, ptr %6, align 8, !tbaa !3
  %181 = getelementptr inbounds nuw %struct.Fraig_ManStruct_t_, ptr %180, i32 0, i32 51
  %182 = load i32, ptr %181, align 4, !tbaa !71
  %183 = add nsw i32 %182, 1
  store i32 %183, ptr %181, align 4, !tbaa !71
  store i32 0, ptr %5, align 4
  store i32 1, ptr %17, align 4
  br label %196

184:                                              ; preds = %172
  %185 = call i64 @Abc_Clock()
  %186 = load i64, ptr %15, align 8, !tbaa !35
  %187 = sub nsw i64 %185, %186
  %188 = load ptr, ptr %6, align 8, !tbaa !3
  %189 = getelementptr inbounds nuw %struct.Fraig_ManStruct_t_, ptr %188, i32 0, i32 73
  %190 = load i64, ptr %189, align 8, !tbaa !42
  %191 = add nsw i64 %190, %187
  store i64 %191, ptr %189, align 8, !tbaa !42
  %192 = load ptr, ptr %6, align 8, !tbaa !3
  %193 = getelementptr inbounds nuw %struct.Fraig_ManStruct_t_, ptr %192, i32 0, i32 52
  %194 = load i32, ptr %193, align 8, !tbaa !72
  %195 = add nsw i32 %194, 1
  store i32 %195, ptr %193, align 8, !tbaa !72
  store i32 0, ptr %5, align 4
  store i32 1, ptr %17, align 4
  br label %196

196:                                              ; preds = %184, %179, %137
  call void @llvm.lifetime.end.p0(i64 4, ptr %16) #5
  call void @llvm.lifetime.end.p0(i64 8, ptr %15) #5
  call void @llvm.lifetime.end.p0(i64 4, ptr %14) #5
  call void @llvm.lifetime.end.p0(i64 4, ptr %13) #5
  call void @llvm.lifetime.end.p0(i64 4, ptr %12) #5
  call void @llvm.lifetime.end.p0(i64 8, ptr %11) #5
  call void @llvm.lifetime.end.p0(i64 8, ptr %10) #5
  %197 = load i32, ptr %5, align 4
  ret i32 %197
}