; Function Attrs: nounwind uwtable
define range(i32 0, 2) i32 @Fraig_ManCheckClauseUsingSat(ptr noundef %0, ptr noundef %1, ptr noundef %2, i32 noundef %3) local_unnamed_addr #0 {
  %5 = alloca %struct.timespec, align 8
  %6 = alloca %struct.timespec, align 8
  %7 = alloca %struct.timespec, align 8
  %8 = alloca %struct.timespec, align 8
  %9 = alloca %struct.timespec, align 8
  %10 = ptrtoint ptr %1 to i64
  %11 = and i64 %10, -2
  %12 = inttoptr i64 %11 to ptr
  %13 = ptrtoint ptr %2 to i64
  %14 = and i64 %13, -2
  %15 = inttoptr i64 %14 to ptr
  %16 = getelementptr inbounds nuw i8, ptr %0, i64 232
  %17 = load ptr, ptr %16, align 8, !tbaa !21
  %18 = icmp eq ptr %17, null
  br i1 %18, label %19, label %20

19:                                               ; preds = %4
  tail call void @Fraig_ManCreateSolver(ptr noundef nonnull %0) #10
  %.pre = load ptr, ptr %16, align 8, !tbaa !21
  br label %20

20:                                               ; preds = %19, %4
  %21 = phi ptr [ %.pre, %19 ], [ %17, %4 ]
  %22 = tail call i32 @Msat_SolverReadVarNum(ptr noundef %21) #10
  %23 = getelementptr inbounds nuw i8, ptr %0, i64 8
  %24 = load ptr, ptr %23, align 8, !tbaa !22
  %25 = getelementptr inbounds nuw i8, ptr %24, i64 4
  %26 = load i32, ptr %25, align 4, !tbaa !23
  %27 = icmp slt i32 %22, %26
  br i1 %27, label %.lr.ph.preheader, label %._crit_edge

.lr.ph.preheader:                                 ; preds = %20
  %28 = sext i32 %22 to i64
  br label %.lr.ph

.lr.ph:                                           ; preds = %.lr.ph.preheader, %.lr.ph
  %indvars.iv = phi i64 [ %28, %.lr.ph.preheader ], [ %indvars.iv.next, %.lr.ph ]
  %29 = phi ptr [ %24, %.lr.ph.preheader ], [ %38, %.lr.ph ]
  %30 = load ptr, ptr %16, align 8, !tbaa !21
  %31 = getelementptr inbounds nuw i8, ptr %29, i64 8
  %32 = load ptr, ptr %31, align 8, !tbaa !26
  %33 = getelementptr inbounds ptr, ptr %32, i64 %indvars.iv
  %34 = load ptr, ptr %33, align 8, !tbaa !27
  %35 = getelementptr inbounds nuw i8, ptr %34, i64 8
  %36 = load i32, ptr %35, align 8, !tbaa !28
  %37 = tail call i32 @Msat_SolverAddVar(ptr noundef %30, i32 noundef %36) #10
  %indvars.iv.next = add nsw i64 %indvars.iv, 1
  %38 = load ptr, ptr %23, align 8, !tbaa !22
  %39 = getelementptr inbounds nuw i8, ptr %38, i64 4
  %40 = load i32, ptr %39, align 4, !tbaa !23
  %41 = sext i32 %40 to i64
  %42 = icmp slt i64 %indvars.iv.next, %41
  br i1 %42, label %.lr.ph, label %._crit_edge, !llvm.loop !77

._crit_edge:                                      ; preds = %.lr.ph, %20
  call void @llvm.lifetime.start.p0(i64 16, ptr nonnull %9) #10
  %43 = call i32 @clock_gettime(i32 noundef 1, ptr noundef nonnull %9) #10
  %44 = icmp slt i32 %43, 0
  br i1 %44, label %Abc_Clock.exit, label %45

45:                                               ; preds = %._crit_edge
  %46 = load i64, ptr %9, align 8, !tbaa !33
  %.neg57 = mul i64 %46, -1000000
  %47 = getelementptr inbounds nuw i8, ptr %9, i64 8
  %48 = load i64, ptr %47, align 8, !tbaa !35
  %.neg = sdiv i64 %48, -1000
  %.neg58 = add i64 %.neg, %.neg57
  br label %Abc_Clock.exit

Abc_Clock.exit:                                   ; preds = %._crit_edge, %45
  %.0.i.neg = phi i64 [ %.neg58, %45 ], [ 1, %._crit_edge ]
  call void @llvm.lifetime.end.p0(i64 16, ptr nonnull %9) #10
  call fastcc void @Fraig_OrderVariables(ptr noundef nonnull %0, ptr noundef %12, ptr noundef %15)
  call void @llvm.lifetime.start.p0(i64 16, ptr nonnull %8) #10
  %49 = call i32 @clock_gettime(i32 noundef 1, ptr noundef nonnull %8) #10
  %50 = icmp slt i32 %49, 0
  br i1 %50, label %Abc_Clock.exit50, label %51

51:                                               ; preds = %Abc_Clock.exit
  %52 = load i64, ptr %8, align 8, !tbaa !33
  %53 = mul nsw i64 %52, 1000000
  %54 = getelementptr inbounds nuw i8, ptr %8, i64 8
  %55 = load i64, ptr %54, align 8, !tbaa !35
  %56 = sdiv i64 %55, 1000
  %57 = add nsw i64 %56, %53
  br label %Abc_Clock.exit50

Abc_Clock.exit50:                                 ; preds = %Abc_Clock.exit, %51
  %.0.i49 = phi i64 [ %57, %51 ], [ -1, %Abc_Clock.exit ]
  call void @llvm.lifetime.end.p0(i64 16, ptr nonnull %8) #10
  %58 = add i64 %.0.i49, %.0.i.neg
  %59 = getelementptr inbounds nuw i8, ptr %0, i64 384
  %60 = load i64, ptr %59, align 8, !tbaa !36
  %61 = add nsw i64 %58, %60
  store i64 %61, ptr %59, align 8, !tbaa !36
  %62 = load ptr, ptr %16, align 8, !tbaa !21
  %63 = getelementptr inbounds nuw i8, ptr %0, i64 264
  %64 = load ptr, ptr %63, align 8, !tbaa !37
  call void @Msat_SolverPrepare(ptr noundef %62, ptr noundef %64) #10
  %65 = getelementptr inbounds nuw i8, ptr %0, i64 240
  %66 = load ptr, ptr %65, align 8, !tbaa !42
  call void @Msat_IntVecClear(ptr noundef %66) #10
  %67 = load ptr, ptr %65, align 8, !tbaa !42
  %68 = load i32, ptr %12, align 8, !tbaa !38
  %69 = shl nsw i32 %68, 1
  %70 = trunc i64 %10 to i32
  %71 = and i32 %70, 1
  %72 = or disjoint i32 %69, %71
  %73 = xor i32 %72, 1
  call void @Msat_IntVecPush(ptr noundef %67, i32 noundef %73) #10
  %74 = load ptr, ptr %65, align 8, !tbaa !42
  %75 = load i32, ptr %15, align 8, !tbaa !38
  %76 = shl nsw i32 %75, 1
  %77 = trunc i64 %13 to i32
  %78 = and i32 %77, 1
  %79 = or disjoint i32 %76, %78
  %80 = xor i32 %79, 1
  call void @Msat_IntVecPush(ptr noundef %74, i32 noundef %80) #10
  call void @llvm.lifetime.start.p0(i64 16, ptr nonnull %7) #10
  %81 = call i32 @clock_gettime(i32 noundef 1, ptr noundef nonnull %7) #10
  %82 = icmp slt i32 %81, 0
  br i1 %82, label %Abc_Clock.exit52, label %83

83:                                               ; preds = %Abc_Clock.exit50
  %84 = load i64, ptr %7, align 8, !tbaa !33
  %.neg61 = mul i64 %84, -1000000
  %85 = getelementptr inbounds nuw i8, ptr %7, i64 8
  %86 = load i64, ptr %85, align 8, !tbaa !35
  %.neg60 = sdiv i64 %86, -1000
  %.neg62 = add i64 %.neg60, %.neg61
  br label %Abc_Clock.exit52

Abc_Clock.exit52:                                 ; preds = %Abc_Clock.exit50, %83
  %.0.i51.neg63 = phi i64 [ %.neg62, %83 ], [ 1, %Abc_Clock.exit50 ]
  call void @llvm.lifetime.end.p0(i64 16, ptr nonnull %7) #10
  %87 = load ptr, ptr %16, align 8, !tbaa !21
  %88 = load ptr, ptr %65, align 8, !tbaa !42
  %89 = call i32 @Msat_SolverSolve(ptr noundef %87, ptr noundef %88, i32 noundef %3, i32 noundef 1000000) #10
  call void @llvm.lifetime.start.p0(i64 16, ptr nonnull %6) #10
  %90 = call i32 @clock_gettime(i32 noundef 1, ptr noundef nonnull %6) #10
  %91 = icmp slt i32 %90, 0
  br i1 %91, label %Abc_Clock.exit54, label %92

92:                                               ; preds = %Abc_Clock.exit52
  %93 = load i64, ptr %6, align 8, !tbaa !33
  %94 = mul nsw i64 %93, 1000000
  %95 = getelementptr inbounds nuw i8, ptr %6, i64 8
  %96 = load i64, ptr %95, align 8, !tbaa !35
  %97 = sdiv i64 %96, 1000
  %98 = add nsw i64 %97, %94
  br label %Abc_Clock.exit54

Abc_Clock.exit54:                                 ; preds = %Abc_Clock.exit52, %92
  %.0.i53 = phi i64 [ %98, %92 ], [ -1, %Abc_Clock.exit52 ]
  call void @llvm.lifetime.end.p0(i64 16, ptr nonnull %6) #10
  %99 = add i64 %.0.i53, %.0.i51.neg63
  %100 = getelementptr inbounds nuw i8, ptr %0, i64 408
  %101 = load i64, ptr %100, align 8, !tbaa !43
  %102 = add nsw i64 %99, %101
  store i64 %102, ptr %100, align 8, !tbaa !43
  switch i32 %89, label %120 [
    i32 -1, label %103
    i32 1, label %116
  ]

103:                                              ; preds = %Abc_Clock.exit54
  %104 = load ptr, ptr %65, align 8, !tbaa !42
  call void @Msat_IntVecClear(ptr noundef %104) #10
  %105 = load ptr, ptr %65, align 8, !tbaa !42
  %106 = load i32, ptr %12, align 8, !tbaa !38
  %107 = shl nsw i32 %106, 1
  %108 = or disjoint i32 %107, %71
  call void @Msat_IntVecPush(ptr noundef %105, i32 noundef %108) #10
  %109 = load ptr, ptr %65, align 8, !tbaa !42
  %110 = load i32, ptr %15, align 8, !tbaa !38
  %111 = shl nsw i32 %110, 1
  %112 = or disjoint i32 %111, %78
  call void @Msat_IntVecPush(ptr noundef %109, i32 noundef %112) #10
  %113 = load ptr, ptr %16, align 8, !tbaa !21
  %114 = load ptr, ptr %65, align 8, !tbaa !42
  %115 = call i32 @Msat_SolverAddClause(ptr noundef %113, ptr noundef %114) #10
  br label %137

116:                                              ; preds = %Abc_Clock.exit54
  %117 = getelementptr inbounds nuw i8, ptr %0, i64 316
  %118 = load i32, ptr %117, align 4, !tbaa !75
  %119 = add nsw i32 %118, 1
  store i32 %119, ptr %117, align 4, !tbaa !75
  br label %137

120:                                              ; preds = %Abc_Clock.exit54
  call void @llvm.lifetime.start.p0(i64 16, ptr nonnull %5) #10
  %121 = call i32 @clock_gettime(i32 noundef 1, ptr noundef nonnull %5) #10
  %122 = icmp slt i32 %121, 0
  br i1 %122, label %Abc_Clock.exit56, label %123

123:                                              ; preds = %120
  %124 = load i64, ptr %5, align 8, !tbaa !33
  %125 = mul nsw i64 %124, 1000000
  %126 = getelementptr inbounds nuw i8, ptr %5, i64 8
  %127 = load i64, ptr %126, align 8, !tbaa !35
  %128 = sdiv i64 %127, 1000
  %129 = add nsw i64 %128, %125
  br label %Abc_Clock.exit56

Abc_Clock.exit56:                                 ; preds = %120, %123
  %.0.i55 = phi i64 [ %129, %123 ], [ -1, %120 ]
  call void @llvm.lifetime.end.p0(i64 16, ptr nonnull %5) #10
  %130 = add i64 %.0.i55, %.0.i51.neg63
  %131 = getelementptr inbounds nuw i8, ptr %0, i64 448
  %132 = load i64, ptr %131, align 8, !tbaa !46
  %133 = add nsw i64 %130, %132
  store i64 %133, ptr %131, align 8, !tbaa !46
  %134 = getelementptr inbounds nuw i8, ptr %0, i64 320
  %135 = load i32, ptr %134, align 8, !tbaa !76
  %136 = add nsw i32 %135, 1
  store i32 %136, ptr %134, align 8, !tbaa !76
  br label %137

137:                                              ; preds = %Abc_Clock.exit56, %116, %103
  %.0 = phi i32 [ 1, %103 ], [ 0, %116 ], [ 0, %Abc_Clock.exit56 ]
  ret i32 %.0
}